target datalayout = "e-m:e-p270:32:32-p271:32:32-p272:64:64-i64:64-i128:128-f80:128-n8:16:32:64-S128"
target triple = "x86_64-pc-linux-gnu"

%struct.OnigEncodingTypeST = type { ptr, ptr, i32, i32, ptr, ptr, ptr, ptr, ptr, ptr, ptr, ptr, ptr, ptr, ptr, ptr, ptr, ptr, ptr, i32, i32, i32 }

; Function Attrs: nounwind uwtable
define internal i32 @check_code_point_sequence(ptr noundef %0, ptr noundef %1, i32 noundef %2, ptr noundef %3) #0 {
  %5 = alloca i32, align 4
  %6 = alloca ptr, align 8
  %7 = alloca ptr, align 8
  %8 = alloca i32, align 4
  %9 = alloca ptr, align 8
  %10 = alloca i32, align 4
  %11 = alloca i32, align 4
  %12 = alloca i32, align 4
  %13 = alloca i32, align 4
  %14 = alloca i32, align 4
  %15 = alloca ptr, align 8
  %16 = alloca i32, align 4
  store ptr %0, ptr %6, align 8, !tbaa !4
  store ptr %1, ptr %7, align 8, !tbaa !4
  store i32 %2, ptr %8, align 4, !tbaa !10
  store ptr %3, ptr %9, align 8, !tbaa !32
  call void @llvm.lifetime.start.p0(i64 4, ptr %10) #8
  call void @llvm.lifetime.start.p0(i64 4, ptr %11) #8
  call void @llvm.lifetime.start.p0(i64 4, ptr %12) #8
  call void @llvm.lifetime.start.p0(i64 4, ptr %13) #8
  call void @llvm.lifetime.start.p0(i64 4, ptr %14) #8
  call void @llvm.lifetime.start.p0(i64 8, ptr %15) #8
  store i32 0, ptr %12, align 4, !tbaa !10
  store i32 0, ptr %11, align 4, !tbaa !10
  br label %17

17:                                               ; preds = %149, %4
  %18 = load ptr, ptr %6, align 8, !tbaa !4
  %19 = load ptr, ptr %7, align 8, !tbaa !4
  %20 = icmp ult ptr %18, %19
  %21 = select i1 %20, i32 0, i32 1
  %22 = icmp ne i32 %21, 0
  %23 = xor i1 %22, true
  br i1 %23, label %24, label %152

24:                                               ; preds = %17
  br label %25

25:                                               ; preds = %24
  %26 = load ptr, ptr %9, align 8, !tbaa !32
  %27 = getelementptr inbounds nuw %struct.OnigEncodingTypeST, ptr %26, i32 0, i32 5
  %28 = load ptr, ptr %27, align 8, !tbaa !92
  %29 = load ptr, ptr %6, align 8, !tbaa !4
  %30 = load ptr, ptr %7, align 8, !tbaa !4
  %31 = call i32 %28(ptr noundef %29, ptr noundef %30)
  store i32 %31, ptr %14, align 4, !tbaa !10
  %32 = load ptr, ptr %6, align 8, !tbaa !4
  store ptr %32, ptr %15, align 8, !tbaa !4
  %33 = load ptr, ptr %9, align 8, !tbaa !32
  %34 = getelementptr inbounds nuw %struct.OnigEncodingTypeST, ptr %33, i32 0, i32 0
  %35 = load ptr, ptr %34, align 8, !tbaa !94
  %36 = load ptr, ptr %6, align 8, !tbaa !4
  %37 = call i32 %35(ptr noundef %36)
  %38 = load ptr, ptr %6, align 8, !tbaa !4
  %39 = sext i32 %37 to i64
  %40 = getelementptr inbounds i8, ptr %38, i64 %39
  store ptr %40, ptr %6, align 8, !tbaa !4
  br label %41

41:                                               ; preds = %25
  br label %42

42:                                               ; preds = %41
  %43 = load i32, ptr %14, align 4, !tbaa !10
  %44 = icmp eq i32 %43, 125
  br i1 %44, label %45, label %48

45:                                               ; preds = %42
  br label %46

46:                                               ; preds = %138, %45
  %47 = load i32, ptr %11, align 4, !tbaa !10
  store i32 %47, ptr %5, align 4
  store i32 1, ptr %16, align 4
  br label %153

48:                                               ; preds = %42
  %49 = load i32, ptr %14, align 4, !tbaa !10
  %50 = icmp eq i32 %49, 32
  br i1 %50, label %54, label %51

51:                                               ; preds = %48
  %52 = load i32, ptr %14, align 4, !tbaa !10
  %53 = icmp eq i32 %52, 10
  br i1 %53, label %54, label %96

54:                                               ; preds = %51, %48
  br label %55

55:                                               ; preds = %87, %54
  %56 = load ptr, ptr %6, align 8, !tbaa !4
  %57 = load ptr, ptr %7, align 8, !tbaa !4
  %58 = icmp ult ptr %56, %57
  %59 = select i1 %58, i32 0, i32 1
  %60 = icmp ne i32 %59, 0
  %61 = xor i1 %60, true
  br i1 %61, label %62, label %88

62:                                               ; preds = %55
  br label %63

63:                                               ; preds = %62
  %64 = load ptr, ptr %9, align 8, !tbaa !32
  %65 = getelementptr inbounds nuw %struct.OnigEncodingTypeST, ptr %64, i32 0, i32 5
  %66 = load ptr, ptr %65, align 8, !tbaa !92
  %67 = load ptr, ptr %6, align 8, !tbaa !4
  %68 = load ptr, ptr %7, align 8, !tbaa !4
  %69 = call i32 %66(ptr noundef %67, ptr noundef %68)
  store i32 %69, ptr %14, align 4, !tbaa !10
  %70 = load ptr, ptr %6, align 8, !tbaa !4
  store ptr %70, ptr %15, align 8, !tbaa !4
  %71 = load ptr, ptr %9, align 8, !tbaa !32
  %72 = getelementptr inbounds nuw %struct.OnigEncodingTypeST, ptr %71, i32 0, i32 0
  %73 = load ptr, ptr %72, align 8, !tbaa !94
  %74 = load ptr, ptr %6, align 8, !tbaa !4
  %75 = call i32 %73(ptr noundef %74)
  %76 = load ptr, ptr %6, align 8, !tbaa !4
  %77 = sext i32 %75 to i64
  %78 = getelementptr inbounds i8, ptr %76, i64 %77
  store ptr %78, ptr %6, align 8, !tbaa !4
  br label %79

79:                                               ; preds = %63
  br label %80

80:                                               ; preds = %79
  %81 = load i32, ptr %14, align 4, !tbaa !10
  %82 = icmp eq i32 %81, 32
  br i1 %82, label %87, label %83

83:                                               ; preds = %80
  %84 = load i32, ptr %14, align 4, !tbaa !10
  %85 = icmp eq i32 %84, 10
  br i1 %85, label %87, label %86

86:                                               ; preds = %83
  br label %88

87:                                               ; preds = %83, %80
  br label %55, !llvm.loop !212

88:                                               ; preds = %86, %55
  %89 = load i32, ptr %14, align 4, !tbaa !10
  %90 = icmp eq i32 %89, 32
  br i1 %90, label %94, label %91

91:                                               ; preds = %88
  %92 = load i32, ptr %14, align 4, !tbaa !10
  %93 = icmp eq i32 %92, 10
  br i1 %93, label %94, label %95

94:                                               ; preds = %91, %88
  store i32 -400, ptr %5, align 4
  store i32 1, ptr %16, align 4
  br label %153

95:                                               ; preds = %91
  br label %135

96:                                               ; preds = %51
  %97 = load i32, ptr %12, align 4, !tbaa !10
  %98 = icmp eq i32 %97, 1
  br i1 %98, label %99, label %134

99:                                               ; preds = %96
  %100 = load i32, ptr %8, align 4, !tbaa !10
  %101 = icmp eq i32 %100, 16
  br i1 %101, label %102, label %114

102:                                              ; preds = %99
  %103 = load i32, ptr %14, align 4, !tbaa !10
  %104 = icmp ult i32 %103, 128
  br i1 %104, label %105, label %113

105:                                              ; preds = %102
  %106 = load ptr, ptr %9, align 8, !tbaa !32
  %107 = getelementptr inbounds nuw %struct.OnigEncodingTypeST, ptr %106, i32 0, i32 12
  %108 = load ptr, ptr %107, align 8, !tbaa !198
  %109 = load i32, ptr %14, align 4, !tbaa !10
  %110 = call i32 %108(i32 noundef %109, i32 noundef 11)
  %111 = icmp ne i32 %110, 0
  br i1 %111, label %112, label %113

112:                                              ; preds = %105
  store i32 -212, ptr %5, align 4
  store i32 1, ptr %16, align 4
  br label %153

113:                                              ; preds = %105, %102
  br label %133

114:                                              ; preds = %99
  %115 = load i32, ptr %8, align 4, !tbaa !10
  %116 = icmp eq i32 %115, 8
  br i1 %116, label %117, label %132

117:                                              ; preds = %114
  %118 = load i32, ptr %14, align 4, !tbaa !10
  %119 = icmp ult i32 %118, 128
  br i1 %119, label %120, label %131

120:                                              ; preds = %117
  %121 = load ptr, ptr %9, align 8, !tbaa !32
  %122 = getelementptr inbounds nuw %struct.OnigEncodingTypeST, ptr %121, i32 0, i32 12
  %123 = load ptr, ptr %122, align 8, !tbaa !198
  %124 = load i32, ptr %14, align 4, !tbaa !10
  %125 = call i32 %123(i32 noundef %124, i32 noundef 4)
  %126 = icmp ne i32 %125, 0
  br i1 %126, label %127, label %131

127:                                              ; preds = %120
  %128 = load i32, ptr %14, align 4, !tbaa !10
  %129 = icmp ult i32 %128, 56
  br i1 %129, label %130, label %131

130:                                              ; preds = %127
  store i32 -212, ptr %5, align 4
  store i32 1, ptr %16, align 4
  br label %153

131:                                              ; preds = %127, %120, %117
  br label %132

132:                                              ; preds = %131, %114
  br label %133

133:                                              ; preds = %132, %113
  store i32 -400, ptr %5, align 4
  store i32 1, ptr %16, align 4
  br label %153

134:                                              ; preds = %96
  br label %135

135:                                              ; preds = %134, %95
  %136 = load i32, ptr %14, align 4, !tbaa !10
  %137 = icmp eq i32 %136, 125
  br i1 %137, label %138, label %139

138:                                              ; preds = %135
  br label %46

139:                                              ; preds = %135
  %140 = load ptr, ptr %15, align 8, !tbaa !4
  store ptr %140, ptr %6, align 8, !tbaa !4
  %141 = load ptr, ptr %7, align 8, !tbaa !4
  %142 = load ptr, ptr %9, align 8, !tbaa !32
  %143 = load i32, ptr %8, align 4, !tbaa !10
  %144 = call i32 @scan_number_of_base(ptr noundef %6, ptr noundef %141, i32 noundef 1, ptr noundef %142, ptr noundef %13, i32 noundef %143)
  store i32 %144, ptr %10, align 4, !tbaa !10
  %145 = load i32, ptr %10, align 4, !tbaa !10
  %146 = icmp ne i32 %145, 0
  br i1 %146, label %147, label %149

147:                                              ; preds = %139
  %148 = load i32, ptr %10, align 4, !tbaa !10
  store i32 %148, ptr %5, align 4
  store i32 1, ptr %16, align 4
  br label %153

149:                                              ; preds = %139
  %150 = load i32, ptr %11, align 4, !tbaa !10
  %151 = add nsw i32 %150, 1
  store i32 %151, ptr %11, align 4, !tbaa !10
  store i32 1, ptr %12, align 4, !tbaa !10
  br label %17, !llvm.loop !213

152:                                              ; preds = %17
  store i32 -400, ptr %5, align 4
  store i32 1, ptr %16, align 4
  br label %153

153:                                              ; preds = %152, %147, %133, %130, %112, %94, %46
  call void @llvm.lifetime.end.p0(i64 8, ptr %15) #8
  call void @llvm.lifetime.end.p0(i64 4, ptr %14) #8
  call void @llvm.lifetime.end.p0(i64 4, ptr %13) #8
  call void @llvm.lifetime.end.p0(i64 4, ptr %12) #8
  call void @llvm.lifetime.end.p0(i64 4, ptr %11) #8
  call void @llvm.lifetime.end.p0(i64 4, ptr %10) #8
  %154 = load i32, ptr %5, align 4
  ret i32 %154
}