; Function Attrs: nounwind uwtable
define internal fastcc i32 @check_code_point_sequence(ptr noundef %0, ptr noundef %1, i32 noundef %2, ptr noundef readonly captures(none) %3) unnamed_addr #2 {
  %5 = alloca ptr, align 8
  %6 = alloca i32, align 4
  call void @llvm.lifetime.start.p0(i64 4, ptr nonnull %6) #24
  %.not63 = icmp ult ptr %0, %1
  br i1 %.not63, label %.lr.ph66, label %.loopexit

.lr.ph66:                                         ; preds = %4
  %7 = getelementptr inbounds nuw i8, ptr %3, i64 32
  br label %8

8:                                                ; preds = %.lr.ph66, %47
  %9 = phi ptr [ %0, %.lr.ph66 ], [ %49, %47 ]
  %10 = phi i1 [ false, %.lr.ph66 ], [ true, %47 ]
  %.04764 = phi i32 [ 0, %.lr.ph66 ], [ %48, %47 ]
  %11 = load ptr, ptr %7, align 8, !tbaa !80
  %12 = tail call i32 %11(ptr noundef %9, ptr noundef nonnull %1) #24
  %13 = load ptr, ptr %3, align 8, !tbaa !82
  %14 = tail call i32 %13(ptr noundef %9) #24
  switch i32 %12, label %24 [
    i32 125, label %.loopexit
    i32 32, label %.preheader
    i32 10, label %.preheader
  ]

.preheader:                                       ; preds = %8, %8
  %15 = sext i32 %14 to i64
  %16 = getelementptr inbounds i8, ptr %9, i64 %15
  %.not5456 = icmp ult ptr %16, %1
  br i1 %.not5456, label %.lr.ph, label %._crit_edge

.lr.ph:                                           ; preds = %.preheader, %.backedge
  %17 = phi ptr [ %23, %.backedge ], [ %16, %.preheader ]
  %18 = load ptr, ptr %7, align 8, !tbaa !80
  %19 = tail call i32 %18(ptr noundef %17, ptr noundef nonnull %1) #24
  %20 = load ptr, ptr %3, align 8, !tbaa !82
  %21 = tail call i32 %20(ptr noundef %17) #24
  switch i32 %19, label %._crit_edge [
    i32 32, label %.backedge
    i32 10, label %.backedge
  ]

.backedge:                                        ; preds = %.lr.ph, %.lr.ph
  %22 = sext i32 %21 to i64
  %23 = getelementptr inbounds i8, ptr %17, i64 %22
  %.not54 = icmp ult ptr %23, %1
  br i1 %.not54, label %.lr.ph, label %._crit_edge

._crit_edge:                                      ; preds = %.backedge, %.lr.ph, %.preheader
  %.144 = phi i32 [ %12, %.preheader ], [ %19, %.lr.ph ], [ %19, %.backedge ]
  %.1 = phi ptr [ %9, %.preheader ], [ %17, %.lr.ph ], [ %17, %.backedge ]
  switch i32 %.144, label %43 [
    i32 32, label %.loopexit
    i32 10, label %.loopexit
  ]

24:                                               ; preds = %8
  br i1 %10, label %25, label %43

25:                                               ; preds = %24
  %26 = icmp eq i32 %2, 16
  br i1 %26, label %27, label %33

27:                                               ; preds = %25
  %28 = icmp ult i32 %12, 128
  br i1 %28, label %29, label %42

29:                                               ; preds = %27
  %30 = getelementptr inbounds nuw i8, ptr %3, i64 88
  %31 = load ptr, ptr %30, align 8, !tbaa !170
  %32 = tail call i32 %31(i32 noundef %12, i32 noundef 11) #24
  %.not53 = icmp eq i32 %32, 0
  br i1 %.not53, label %42, label %.loopexit

33:                                               ; preds = %25
  %34 = icmp eq i32 %2, 8
  %35 = icmp ult i32 %12, 128
  %or.cond9 = select i1 %34, i1 %35, i1 false
  br i1 %or.cond9, label %36, label %42

36:                                               ; preds = %33
  %37 = getelementptr inbounds nuw i8, ptr %3, i64 88
  %38 = load ptr, ptr %37, align 8, !tbaa !170
  %39 = tail call i32 %38(i32 noundef %12, i32 noundef 4) #24
  %40 = icmp ne i32 %39, 0
  %41 = icmp samesign ult i32 %12, 56
  %or.cond7 = select i1 %40, i1 %41, i1 false
  br i1 %or.cond7, label %.loopexit, label %42

42:                                               ; preds = %33, %36, %27, %29
  br label %.loopexit

43:                                               ; preds = %._crit_edge, %24
  %.245 = phi i32 [ %.144, %._crit_edge ], [ %12, %24 ]
  %.2 = phi ptr [ %.1, %._crit_edge ], [ %9, %24 ]
  %44 = icmp eq i32 %.245, 125
  br i1 %44, label %.loopexit, label %45

45:                                               ; preds = %43
  store ptr %.2, ptr %5, align 8, !tbaa !149
  %46 = call fastcc i32 @scan_number_of_base(ptr noundef %5, ptr noundef nonnull %1, ptr noundef nonnull %3, ptr noundef %6, i32 noundef %2)
  %.not55 = icmp eq i32 %46, 0
  br i1 %.not55, label %47, label %.loopexit

47:                                               ; preds = %45
  %48 = add nuw nsw i32 %.04764, 1
  %49 = load ptr, ptr %5, align 8, !tbaa !149
  %.not = icmp ult ptr %49, %1
  br i1 %.not, label %8, label %.loopexit, !llvm.loop !183

.loopexit:                                        ; preds = %43, %._crit_edge, %._crit_edge, %45, %47, %8, %4, %36, %29, %42
  %.048 = phi i32 [ -400, %42 ], [ -212, %29 ], [ -212, %36 ], [ -400, %4 ], [ %.04764, %43 ], [ -400, %._crit_edge ], [ -400, %._crit_edge ], [ %46, %45 ], [ -400, %47 ], [ %.04764, %8 ]
  call void @llvm.lifetime.end.p0(i64 4, ptr nonnull %6) #24
  ret i32 %.048
}